; ModuleID = 'source-C-CXX/20/1667.c'
source_filename = "source-C-CXX/20/1667.c"
target datalayout = "e-m:e-p270:32:32-p271:32:32-p272:64:64-i64:64-f80:128-n8:16:32:64-S128"
target triple = "x86_64-pc-linux-gnu"

@.str = private unnamed_addr constant [5 x i8] c"%ld\0A\00", align 1
@.str.1 = private unnamed_addr constant [4 x i8] c"%ld\00", align 1
@.str.2 = private unnamed_addr constant [8 x i8] c"%ld,%ld\00", align 1

; Function Attrs: nofree nounwind sspstrong uwtable
define dso_local void @main() local_unnamed_addr #0 {
  %1 = alloca i64, align 8
  %2 = alloca i64, align 8
  %3 = bitcast i64* %1 to i8*
  call void @llvm.lifetime.start.p0i8(i64 8, i8* nonnull %3) #3
  %4 = bitcast i64* %2 to i8*
  call void @llvm.lifetime.start.p0i8(i64 8, i8* nonnull %4) #3
  %5 = call i32 (i8*, ...) @__isoc99_scanf(i8* getelementptr inbounds ([5 x i8], [5 x i8]* @.str, i64 0, i64 0), i64* nonnull %2)
  %6 = load i64, i64* %2, align 8, !tbaa !5
  %7 = icmp slt i64 %6, 1
  br i1 %7, label %23, label %8

8:                                                ; preds = %0, %8
  %9 = phi i64 [ %18, %8 ], [ 32767, %0 ]
  %10 = phi i64 [ %16, %8 ], [ 0, %0 ]
  %11 = phi i64 [ %20, %8 ], [ 1, %0 ]
  %12 = phi i64 [ %19, %8 ], [ 0, %0 ]
  %13 = call i32 (i8*, ...) @__isoc99_scanf(i8* getelementptr inbounds ([4 x i8], [4 x i8]* @.str.1, i64 0, i64 0), i64* nonnull %1)
  %14 = load i64, i64* %1, align 8, !tbaa !5
  %15 = icmp slt i64 %10, %14
  %16 = select i1 %15, i64 %14, i64 %10
  %17 = icmp sgt i64 %9, %14
  %18 = select i1 %17, i64 %14, i64 %9
  %19 = add nsw i64 %14, %12
  %20 = add nuw nsw i64 %11, 1
  %21 = load i64, i64* %2, align 8, !tbaa !5
  %22 = icmp slt i64 %11, %21
  br i1 %22, label %8, label %23, !llvm.loop !9

23:                                               ; preds = %8, %0
  %24 = phi i64 [ 0, %0 ], [ %19, %8 ]
  %25 = phi i64 [ 0, %0 ], [ %16, %8 ]
  %26 = phi i64 [ 32767, %0 ], [ %18, %8 ]
  %27 = phi i64 [ %6, %0 ], [ %21, %8 ]
  %28 = mul nsw i64 %27, %25
  %29 = sub nsw i64 %28, %24
  %30 = mul nsw i64 %27, %26
  %31 = sub nsw i64 %24, %30
  %32 = icmp sgt i64 %29, %31
  br i1 %32, label %33, label %35

33:                                               ; preds = %23
  %34 = call i32 (i8*, ...) @printf(i8* nonnull dereferenceable(1) getelementptr inbounds ([5 x i8], [5 x i8]* @.str, i64 0, i64 0), i64 %25)
  br label %41

35:                                               ; preds = %23
  %36 = icmp slt i64 %29, %31
  br i1 %36, label %37, label %39

37:                                               ; preds = %35
  %38 = call i32 (i8*, ...) @printf(i8* nonnull dereferenceable(1) getelementptr inbounds ([5 x i8], [5 x i8]* @.str, i64 0, i64 0), i64 %26)
  br label %41

39:                                               ; preds = %35
  %40 = call i32 (i8*, ...) @printf(i8* nonnull dereferenceable(1) getelementptr inbounds ([8 x i8], [8 x i8]* @.str.2, i64 0, i64 0), i64 %26, i64 %25)
  br label %41

41:                                               ; preds = %37, %39, %33
  call void @llvm.lifetime.end.p0i8(i64 8, i8* nonnull %4) #3
  call void @llvm.lifetime.end.p0i8(i64 8, i8* nonnull %3) #3
  ret void
}

; Function Attrs: argmemonly mustprogress nofree nosync nounwind willreturn
declare void @llvm.lifetime.start.p0i8(i64 immarg, i8* nocapture) #1

; Function Attrs: nofree nounwind
declare noundef i32 @__isoc99_scanf(i8* nocapture noundef readonly, ...) local_unnamed_addr #2

; Function Attrs: nofree nounwind
declare noundef i32 @printf(i8* nocapture noundef readonly, ...) local_unnamed_addr #2

; Function Attrs: argmemonly mustprogress nofree nosync nounwind willreturn
declare void @llvm.lifetime.end.p0i8(i64 immarg, i8* nocapture) #1


!llvm.module.flags = !{!0, !1, !2, !3}
!llvm.ident = !{!4}

!0 = !{i32 1, !"wchar_size", i32 4}
!1 = !{i32 7, !"PIC Level", i32 2}
!2 = !{i32 7, !"PIE Level", i32 2}
!3 = !{i32 7, !"uwtable", i32 1}
!4 = !{!"clang version 13.0.0"}
!5 = !{!6, !6, i64 0}
!6 = !{!"long", !7, i64 0}
!7 = !{!"omnipotent char", !8, i64 0}
!8 = !{!"Simple C/C++ TBAA"}
!9 = distinct !{!9, !10}
!10 = !{!"llvm.loop.mustprogress"}
